target datalayout = "e-m:e-p270:32:32-p271:32:32-p272:64:64-i64:64-i128:128-f80:128-n8:16:32:64-S128"
target triple = "x86_64-pc-linux-gnu"

%struct._object = type { %union.anon, ptr }
%union.anon = type { i64 }
%struct._typeobject = type { %struct.PyVarObject, ptr, i64, i64, ptr, i64, ptr, ptr, ptr, ptr, ptr, ptr, ptr, ptr, ptr, ptr, ptr, ptr, ptr, i64, ptr, ptr, ptr, ptr, i64, ptr, ptr, ptr, ptr, ptr, ptr, ptr, ptr, ptr, i64, ptr, ptr, ptr, ptr, ptr, ptr, ptr, ptr, ptr, ptr, ptr, i32, ptr, ptr, i8, i16 }
%struct.PyVarObject = type { %struct._object, i64 }
%struct.Py_buffer = type { ptr, ptr, i64, i64, i32, i32, ptr, ptr, ptr, ptr, ptr }
%struct.anon = type { i32, i32 }
%struct.PyTupleObject = type { %struct.PyVarObject, [1 x ptr] }
%struct.iovec = type { ptr, i64 }
%struct.PyListObject = type { %struct.PyVarObject, ptr, i64 }
%struct.msghdr = type { ptr, i32, ptr, i64, ptr, i64, i32 }

@PyExc_OSError = external global ptr, align 8
@.str.650 = private unnamed_addr constant [41 x i8] c"sendmsg() argument 1 must be an iterable\00", align 1
@.str.651 = private unnamed_addr constant [33 x i8] c"sendmsg() argument 1 is too long\00", align 1
@.str.652 = private unnamed_addr constant [66 x i8] c"y*;sendmsg() argument 1 must be an iterable of bytes-like objects\00", align 1

; Function Attrs: alwaysinline nounwind uwtable
define internal i32 @_Py_IsImmortal(ptr noundef %0) #8 {
  %2 = alloca ptr, align 8
  store ptr %0, ptr %2, align 8, !tbaa !3
  %3 = load ptr, ptr %2, align 8, !tbaa !3
  %4 = getelementptr inbounds nuw %struct._object, ptr %3, i32 0, i32 0
  %5 = getelementptr inbounds nuw %struct.anon, ptr %4, i32 0, i32 0
  %6 = load i32, ptr %5, align 8, !tbaa !35
  %7 = icmp slt i32 %6, 0
  %8 = zext i1 %7 to i32
  ret i32 %8
}

; Function Attrs: alwaysinline nounwind uwtable
define internal void @Py_DECREF(ptr noundef %0) #8 {
  %2 = alloca ptr, align 8
  store ptr %0, ptr %2, align 8, !tbaa !3
  %3 = load ptr, ptr %2, align 8, !tbaa !3
  %4 = call i32 @_Py_IsImmortal(ptr noundef %3)
  %5 = icmp ne i32 %4, 0
  br i1 %5, label %6, label %7

6:                                                ; preds = %1
  br label %16

7:                                                ; preds = %1
  %8 = load ptr, ptr %2, align 8, !tbaa !3
  %9 = getelementptr inbounds nuw %struct._object, ptr %8, i32 0, i32 0
  %10 = getelementptr inbounds nuw %struct.anon, ptr %9, i32 0, i32 0
  %11 = load i32, ptr %10, align 8, !tbaa !35
  %12 = add i32 %11, -1
  store i32 %12, ptr %10, align 8, !tbaa !35
  %13 = icmp eq i32 %12, 0
  br i1 %13, label %14, label %16

14:                                               ; preds = %7
  %15 = load ptr, ptr %2, align 8, !tbaa !3
  call void @_Py_Dealloc(ptr noundef %15)
  br label %16

16:                                               ; preds = %6, %14, %7
  ret void
}

; Function Attrs: inlinehint nounwind uwtable
define internal i64 @Py_SIZE(ptr noundef %0) #3 {
  %2 = alloca ptr, align 8
  store ptr %0, ptr %2, align 8, !tbaa !3
  %3 = load ptr, ptr %2, align 8, !tbaa !3
  %4 = getelementptr inbounds nuw %struct.PyVarObject, ptr %3, i32 0, i32 1
  %5 = load i64, ptr %4, align 8, !tbaa !173
  ret i64 %5
}

; Function Attrs: inlinehint nounwind uwtable
define internal void @Py_XDECREF(ptr noundef %0) #3 {
  %2 = alloca ptr, align 8
  store ptr %0, ptr %2, align 8, !tbaa !3
  %3 = load ptr, ptr %2, align 8, !tbaa !3
  %4 = icmp ne ptr %3, null
  br i1 %4, label %5, label %7

5:                                                ; preds = %1
  %6 = load ptr, ptr %2, align 8, !tbaa !3
  call void @Py_DECREF(ptr noundef %6)
  br label %7

7:                                                ; preds = %5, %1
  ret void
}

; Function Attrs: inlinehint nounwind uwtable
define internal i64 @PyTuple_GET_SIZE(ptr noundef %0) #3 {
  %2 = alloca ptr, align 8
  %3 = alloca ptr, align 8
  store ptr %0, ptr %2, align 8, !tbaa !3
  call void @llvm.lifetime.start.p0(i64 8, ptr %3) #10
  %4 = load ptr, ptr %2, align 8, !tbaa !3
  store ptr %4, ptr %3, align 8, !tbaa !8
  %5 = load ptr, ptr %3, align 8, !tbaa !8
  %6 = call i64 @Py_SIZE(ptr noundef %5)
  call void @llvm.lifetime.end.p0(i64 8, ptr %3) #10
  ret i64 %6
}

; Function Attrs: inlinehint nounwind uwtable
define internal i64 @PyList_GET_SIZE(ptr noundef %0) #3 {
  %2 = alloca ptr, align 8
  %3 = alloca ptr, align 8
  store ptr %0, ptr %2, align 8, !tbaa !3
  call void @llvm.lifetime.start.p0(i64 8, ptr %3) #10
  %4 = load ptr, ptr %2, align 8, !tbaa !3
  store ptr %4, ptr %3, align 8, !tbaa !8
  %5 = load ptr, ptr %3, align 8, !tbaa !8
  %6 = call i64 @Py_SIZE(ptr noundef %5)
  call void @llvm.lifetime.end.p0(i64 8, ptr %3) #10
  ret i64 %6
}

; Function Attrs: inlinehint nounwind uwtable
define internal i32 @PyType_HasFeature(ptr noundef %0, i64 noundef %1) #3 {
  %3 = alloca ptr, align 8
  %4 = alloca i64, align 8
  %5 = alloca i64, align 8
  store ptr %0, ptr %3, align 8, !tbaa !21
  store i64 %1, ptr %4, align 8, !tbaa !52
  call void @llvm.lifetime.start.p0(i64 8, ptr %5) #10
  %6 = load ptr, ptr %3, align 8, !tbaa !21
  %7 = getelementptr inbounds nuw %struct._typeobject, ptr %6, i32 0, i32 19
  %8 = load i64, ptr %7, align 8, !tbaa !115
  store i64 %8, ptr %5, align 8, !tbaa !52
  %9 = load i64, ptr %5, align 8, !tbaa !52
  %10 = load i64, ptr %4, align 8, !tbaa !52
  %11 = and i64 %9, %10
  %12 = icmp ne i64 %11, 0
  %13 = zext i1 %12 to i32
  call void @llvm.lifetime.end.p0(i64 8, ptr %5) #10
  ret i32 %13
}

; Function Attrs: inlinehint nounwind uwtable
define internal ptr @_Py_TYPE(ptr noundef %0) #3 {
  %2 = alloca ptr, align 8
  store ptr %0, ptr %2, align 8, !tbaa !3
  %3 = load ptr, ptr %2, align 8, !tbaa !3
  %4 = getelementptr inbounds nuw %struct._object, ptr %3, i32 0, i32 1
  %5 = load ptr, ptr %4, align 8, !tbaa !116
  ret ptr %5
}

; Function Attrs: nounwind uwtable
define internal i32 @sock_sendmsg_iovec(ptr noundef %0, ptr noundef %1, ptr noundef %2, ptr noundef %3, ptr noundef %4) #0 {
  %6 = alloca ptr, align 8
  %7 = alloca ptr, align 8
  %8 = alloca ptr, align 8
  %9 = alloca ptr, align 8
  %10 = alloca ptr, align 8
  %11 = alloca i64, align 8
  %12 = alloca i64, align 8
  %13 = alloca i32, align 4
  %14 = alloca ptr, align 8
  %15 = alloca ptr, align 8
  %16 = alloca ptr, align 8
  store ptr %0, ptr %6, align 8, !tbaa !8
  store ptr %1, ptr %7, align 8, !tbaa !3
  store ptr %2, ptr %8, align 8, !tbaa !296
  store ptr %3, ptr %9, align 8, !tbaa !8
  store ptr %4, ptr %10, align 8, !tbaa !114
  call void @llvm.lifetime.start.p0(i64 8, ptr %11) #10
  call void @llvm.lifetime.start.p0(i64 8, ptr %12) #10
  store i64 0, ptr %12, align 8, !tbaa !52
  call void @llvm.lifetime.start.p0(i64 4, ptr %13) #10
  store i32 -1, ptr %13, align 4, !tbaa !15
  call void @llvm.lifetime.start.p0(i64 8, ptr %14) #10
  store ptr null, ptr %14, align 8, !tbaa !200
  call void @llvm.lifetime.start.p0(i64 8, ptr %15) #10
  store ptr null, ptr %15, align 8, !tbaa !3
  call void @llvm.lifetime.start.p0(i64 8, ptr %16) #10
  store ptr null, ptr %16, align 8, !tbaa !8
  %17 = load ptr, ptr %7, align 8, !tbaa !3
  %18 = call ptr @PySequence_Fast(ptr noundef %17, ptr noundef @.str.650)
  store ptr %18, ptr %15, align 8, !tbaa !3
  %19 = load ptr, ptr %15, align 8, !tbaa !3
  %20 = icmp eq ptr %19, null
  br i1 %20, label %21, label %22

21:                                               ; preds = %5
  br label %131

22:                                               ; preds = %5
  %23 = load ptr, ptr %15, align 8, !tbaa !3
  %24 = call ptr @_Py_TYPE(ptr noundef %23)
  %25 = call i32 @PyType_HasFeature(ptr noundef %24, i64 noundef 33554432)
  %26 = icmp ne i32 %25, 0
  br i1 %26, label %27, label %30

27:                                               ; preds = %22
  %28 = load ptr, ptr %15, align 8, !tbaa !3
  %29 = call i64 @PyList_GET_SIZE(ptr noundef %28)
  br label %33

30:                                               ; preds = %22
  %31 = load ptr, ptr %15, align 8, !tbaa !3
  %32 = call i64 @PyTuple_GET_SIZE(ptr noundef %31)
  br label %33

33:                                               ; preds = %30, %27
  %34 = phi i64 [ %29, %27 ], [ %32, %30 ]
  store i64 %34, ptr %11, align 8, !tbaa !52
  %35 = load i64, ptr %11, align 8, !tbaa !52
  %36 = icmp sgt i64 %35, 2147483647
  br i1 %36, label %37, label %39

37:                                               ; preds = %33
  %38 = load ptr, ptr @PyExc_OSError, align 8, !tbaa !3
  call void @PyErr_SetString(ptr noundef %38, ptr noundef @.str.651)
  br label %131

39:                                               ; preds = %33
  %40 = load i64, ptr %11, align 8, !tbaa !52
  %41 = load ptr, ptr %8, align 8, !tbaa !296
  %42 = getelementptr inbounds nuw %struct.msghdr, ptr %41, i32 0, i32 3
  store i64 %40, ptr %42, align 8, !tbaa !285
  %43 = load i64, ptr %11, align 8, !tbaa !52
  %44 = icmp sgt i64 %43, 0
  br i1 %44, label %45, label %77

45:                                               ; preds = %39
  %46 = load i64, ptr %11, align 8, !tbaa !52
  %47 = icmp ugt i64 %46, 576460752303423487
  br i1 %47, label %48, label %49

48:                                               ; preds = %45
  br label %53

49:                                               ; preds = %45
  %50 = load i64, ptr %11, align 8, !tbaa !52
  %51 = mul i64 %50, 16
  %52 = call ptr @PyMem_Malloc(i64 noundef %51)
  br label %53

53:                                               ; preds = %49, %48
  %54 = phi ptr [ null, %48 ], [ %52, %49 ]
  store ptr %54, ptr %14, align 8, !tbaa !200
  %55 = load ptr, ptr %14, align 8, !tbaa !200
  %56 = icmp eq ptr %55, null
  br i1 %56, label %57, label %59

57:                                               ; preds = %53
  %58 = call ptr @PyErr_NoMemory()
  br label %131

59:                                               ; preds = %53
  %60 = load ptr, ptr %14, align 8, !tbaa !200
  %61 = load ptr, ptr %8, align 8, !tbaa !296
  %62 = getelementptr inbounds nuw %struct.msghdr, ptr %61, i32 0, i32 2
  store ptr %60, ptr %62, align 8, !tbaa !228
  %63 = load i64, ptr %11, align 8, !tbaa !52
  %64 = icmp ugt i64 %63, 115292150460684697
  br i1 %64, label %65, label %66

65:                                               ; preds = %59
  br label %70

66:                                               ; preds = %59
  %67 = load i64, ptr %11, align 8, !tbaa !52
  %68 = mul i64 %67, 80
  %69 = call ptr @PyMem_Malloc(i64 noundef %68)
  br label %70

70:                                               ; preds = %66, %65
  %71 = phi ptr [ null, %65 ], [ %69, %66 ]
  store ptr %71, ptr %16, align 8, !tbaa !8
  %72 = load ptr, ptr %16, align 8, !tbaa !8
  %73 = icmp eq ptr %72, null
  br i1 %73, label %74, label %76

74:                                               ; preds = %70
  %75 = call ptr @PyErr_NoMemory()
  br label %131

76:                                               ; preds = %70
  br label %77

77:                                               ; preds = %76, %39
  br label %78

78:                                               ; preds = %127, %77
  %79 = load i64, ptr %12, align 8, !tbaa !52
  %80 = load i64, ptr %11, align 8, !tbaa !52
  %81 = icmp slt i64 %79, %80
  br i1 %81, label %82, label %130

82:                                               ; preds = %78
  %83 = load ptr, ptr %15, align 8, !tbaa !3
  %84 = call ptr @_Py_TYPE(ptr noundef %83)
  %85 = call i32 @PyType_HasFeature(ptr noundef %84, i64 noundef 33554432)
  %86 = icmp ne i32 %85, 0
  br i1 %86, label %87, label %94

87:                                               ; preds = %82
  %88 = load ptr, ptr %15, align 8, !tbaa !3
  %89 = getelementptr inbounds nuw %struct.PyListObject, ptr %88, i32 0, i32 1
  %90 = load ptr, ptr %89, align 8, !tbaa !202
  %91 = load i64, ptr %12, align 8, !tbaa !52
  %92 = getelementptr ptr, ptr %90, i64 %91
  %93 = load ptr, ptr %92, align 8, !tbaa !3
  br label %100

94:                                               ; preds = %82
  %95 = load ptr, ptr %15, align 8, !tbaa !3
  %96 = getelementptr inbounds nuw %struct.PyTupleObject, ptr %95, i32 0, i32 1
  %97 = load i64, ptr %12, align 8, !tbaa !52
  %98 = getelementptr [1 x ptr], ptr %96, i64 0, i64 %97
  %99 = load ptr, ptr %98, align 8, !tbaa !3
  br label %100

100:                                              ; preds = %94, %87
  %101 = phi ptr [ %93, %87 ], [ %99, %94 ]
  %102 = load ptr, ptr %16, align 8, !tbaa !8
  %103 = load i64, ptr %12, align 8, !tbaa !52
  %104 = getelementptr %struct.Py_buffer, ptr %102, i64 %103
  %105 = call i32 (ptr, ptr, ...) @PyArg_Parse(ptr noundef %101, ptr noundef @.str.652, ptr noundef %104)
  %106 = icmp ne i32 %105, 0
  br i1 %106, label %108, label %107

107:                                              ; preds = %100
  br label %131

108:                                              ; preds = %100
  %109 = load ptr, ptr %16, align 8, !tbaa !8
  %110 = load i64, ptr %12, align 8, !tbaa !52
  %111 = getelementptr %struct.Py_buffer, ptr %109, i64 %110
  %112 = getelementptr inbounds nuw %struct.Py_buffer, ptr %111, i32 0, i32 0
  %113 = load ptr, ptr %112, align 8, !tbaa !36
  %114 = load ptr, ptr %14, align 8, !tbaa !200
  %115 = load i64, ptr %12, align 8, !tbaa !52
  %116 = getelementptr %struct.iovec, ptr %114, i64 %115
  %117 = getelementptr inbounds nuw %struct.iovec, ptr %116, i32 0, i32 0
  store ptr %113, ptr %117, align 8, !tbaa !197
  %118 = load ptr, ptr %16, align 8, !tbaa !8
  %119 = load i64, ptr %12, align 8, !tbaa !52
  %120 = getelementptr %struct.Py_buffer, ptr %118, i64 %119
  %121 = getelementptr inbounds nuw %struct.Py_buffer, ptr %120, i32 0, i32 2
  %122 = load i64, ptr %121, align 8, !tbaa !39
  %123 = load ptr, ptr %14, align 8, !tbaa !200
  %124 = load i64, ptr %12, align 8, !tbaa !52
  %125 = getelementptr %struct.iovec, ptr %123, i64 %124
  %126 = getelementptr inbounds nuw %struct.iovec, ptr %125, i32 0, i32 1
  store i64 %122, ptr %126, align 8, !tbaa !199
  br label %127

127:                                              ; preds = %108
  %128 = load i64, ptr %12, align 8, !tbaa !52
  %129 = add i64 %128, 1
  store i64 %129, ptr %12, align 8, !tbaa !52
  br label %78, !llvm.loop !297

130:                                              ; preds = %78
  store i32 0, ptr %13, align 4, !tbaa !15
  br label %131

131:                                              ; preds = %130, %107, %74, %57, %37, %21
  %132 = load ptr, ptr %16, align 8, !tbaa !8
  %133 = load ptr, ptr %9, align 8, !tbaa !8
  store ptr %132, ptr %133, align 8, !tbaa !8
  %134 = load i64, ptr %12, align 8, !tbaa !52
  %135 = load ptr, ptr %10, align 8, !tbaa !114
  store i64 %134, ptr %135, align 8, !tbaa !52
  %136 = load ptr, ptr %15, align 8, !tbaa !3
  call void @Py_XDECREF(ptr noundef %136)
  %137 = load i32, ptr %13, align 4, !tbaa !15
  call void @llvm.lifetime.end.p0(i64 8, ptr %16) #10
  call void @llvm.lifetime.end.p0(i64 8, ptr %15) #10
  call void @llvm.lifetime.end.p0(i64 8, ptr %14) #10
  call void @llvm.lifetime.end.p0(i64 4, ptr %13) #10
  call void @llvm.lifetime.end.p0(i64 8, ptr %12) #10
  call void @llvm.lifetime.end.p0(i64 8, ptr %11) #10
  ret i32 %137
}