; Function Attrs: nounwind uwtable
define internal fastcc range(i32 -1, 1) i32 @sock_sendmsg_iovec(ptr noundef %0, ptr noundef nonnull writeonly captures(none) %1, ptr noundef nonnull writeonly captures(none) %2, ptr noundef nonnull writeonly captures(none) %3) unnamed_addr #0 {
  %5 = tail call ptr @PySequence_Fast(ptr noundef %0, ptr noundef nonnull @.str.650) #13
  %6 = icmp eq ptr %5, null
  br i1 %6, label %49, label %7

7:                                                ; preds = %4
  %8 = getelementptr i8, ptr %5, i64 8
  %.in6 = getelementptr i8, ptr %5, i64 16
  %9 = load i64, ptr %.in6, align 8, !tbaa !63
  %10 = icmp sgt i64 %9, 2147483647
  br i1 %10, label %11, label %13

11:                                               ; preds = %7
  %12 = load ptr, ptr @PyExc_OSError, align 8, !tbaa !19
  tail call void @PyErr_SetString(ptr noundef %12, ptr noundef nonnull @.str.651) #13
  br label %.loopexit

13:                                               ; preds = %7
  %14 = getelementptr inbounds nuw i8, ptr %1, i64 24
  store i64 %9, ptr %14, align 8, !tbaa !221
  %15 = icmp sgt i64 %9, 0
  br i1 %15, label %16, label %.loopexit

16:                                               ; preds = %13
  %17 = shl nuw nsw i64 %9, 4
  %18 = tail call ptr @PyMem_Malloc(i64 noundef %17) #13
  %19 = icmp eq ptr %18, null
  br i1 %19, label %20, label %22

20:                                               ; preds = %16
  %21 = tail call ptr @PyErr_NoMemory() #13
  br label %.loopexit

22:                                               ; preds = %16
  %23 = getelementptr inbounds nuw i8, ptr %1, i64 16
  store ptr %18, ptr %23, align 8, !tbaa !191
  %24 = mul nuw nsw i64 %9, 80
  %25 = tail call ptr @PyMem_Malloc(i64 noundef %24) #13
  %26 = icmp eq ptr %25, null
  br i1 %26, label %27, label %.lr.ph

27:                                               ; preds = %22
  %28 = tail call ptr @PyErr_NoMemory() #13
  br label %.loopexit

.lr.ph:                                           ; preds = %22
  %29 = getelementptr inbounds nuw i8, ptr %5, i64 24
  br label %30

30:                                               ; preds = %.lr.ph, %42
  %.1437 = phi i64 [ 0, %.lr.ph ], [ %48, %42 ]
  %.val51 = load ptr, ptr %8, align 8, !tbaa !39
  %31 = getelementptr i8, ptr %.val51, i64 168
  %.val53 = load i64, ptr %31, align 8, !tbaa !40
  %32 = and i64 %.val53, 33554432
  %.not49 = icmp eq i64 %32, 0
  br i1 %.not49, label %36, label %33

33:                                               ; preds = %30
  %34 = load ptr, ptr %29, align 8, !tbaa !167
  %35 = getelementptr ptr, ptr %34, i64 %.1437
  br label %38

36:                                               ; preds = %30
  %37 = getelementptr [1 x ptr], ptr %29, i64 0, i64 %.1437
  br label %38

38:                                               ; preds = %36, %33
  %.in = phi ptr [ %35, %33 ], [ %37, %36 ]
  %39 = load ptr, ptr %.in, align 8, !tbaa !19
  %40 = getelementptr %struct.Py_buffer, ptr %25, i64 %.1437
  %41 = tail call i32 (ptr, ptr, ...) @PyArg_Parse(ptr noundef %39, ptr noundef nonnull @.str.652, ptr noundef %40) #13
  %.not50 = icmp eq i32 %41, 0
  br i1 %.not50, label %.loopexit, label %42

42:                                               ; preds = %38
  %43 = load ptr, ptr %40, align 8, !tbaa !27
  %44 = getelementptr %struct.iovec, ptr %18, i64 %.1437
  store ptr %43, ptr %44, align 8, !tbaa !164
  %45 = getelementptr inbounds nuw i8, ptr %40, i64 16
  %46 = load i64, ptr %45, align 8, !tbaa !31
  %47 = getelementptr inbounds nuw i8, ptr %44, i64 8
  store i64 %46, ptr %47, align 8, !tbaa !166
  %48 = add nuw nsw i64 %.1437, 1
  %exitcond.not = icmp eq i64 %48, %9
  br i1 %exitcond.not, label %.loopexit, label %30, !llvm.loop !231

49:                                               ; preds = %4
  store ptr null, ptr %2, align 8, !tbaa !172
  store i64 0, ptr %3, align 8, !tbaa !47
  br label %Py_XDECREF.exit

.loopexit:                                        ; preds = %38, %42, %13, %27, %20, %11
  %.042.ph = phi i64 [ 0, %27 ], [ 0, %20 ], [ 0, %11 ], [ 0, %13 ], [ %.1437, %38 ], [ %9, %42 ]
  %.041.ph = phi i32 [ -1, %27 ], [ -1, %20 ], [ -1, %11 ], [ 0, %13 ], [ -1, %38 ], [ 0, %42 ]
  %.0.ph = phi ptr [ null, %27 ], [ null, %20 ], [ null, %11 ], [ null, %13 ], [ %25, %42 ], [ %25, %38 ]
  store ptr %.0.ph, ptr %2, align 8, !tbaa !172
  store i64 %.042.ph, ptr %3, align 8, !tbaa !47
  %50 = load i32, ptr %5, align 8, !tbaa !18
  %.not.i.i = icmp sgt i32 %50, -1
  br i1 %.not.i.i, label %51, label %Py_XDECREF.exit

51:                                               ; preds = %.loopexit
  %52 = add nsw i32 %50, -1
  store i32 %52, ptr %5, align 8, !tbaa !18
  %53 = icmp eq i32 %52, 0
  br i1 %53, label %54, label %Py_XDECREF.exit

54:                                               ; preds = %51
  tail call void @_Py_Dealloc(ptr noundef nonnull %5) #13
  br label %Py_XDECREF.exit

Py_XDECREF.exit:                                  ; preds = %49, %.loopexit, %51, %54
  %.0415 = phi i32 [ -1, %49 ], [ %.041.ph, %.loopexit ], [ %.041.ph, %51 ], [ %.041.ph, %54 ]
  ret i32 %.0415
}